
ram.srec:     file format srec


Disassembly of section .sec1:

0000000080000000 <.sec1>:
    80000000:	8140                	li	ra,0
    80000002:	0141                	li	sp,0
    80000004:	8141                	li	gp,0
    80000006:	0142                	li	tp,0
    80000008:	8142                	li	t0,0
    8000000a:	0143                	li	t1,0
    8000000c:	8143                	li	t2,0
    8000000e:	0144                	li	s0,0
    80000010:	8144                	li	s1,0
    80000012:	0145                	li	a0,0
    80000014:	8145                	li	a1,0
    80000016:	0146                	li	a2,0
    80000018:	8146                	li	a3,0
    8000001a:	0147                	li	a4,0
    8000001c:	8147                	li	a5,0
    8000001e:	0148                	li	a6,0
    80000020:	8148                	li	a7,0
    80000022:	0149                	li	s2,0
    80000024:	8149                	li	s3,0
    80000026:	014a                	li	s4,0
    80000028:	814a                	li	s5,0
    8000002a:	014b                	li	s6,0
    8000002c:	814b                	li	s7,0
    8000002e:	014c                	li	s8,0
    80000030:	814c                	li	s9,0
    80000032:	014d                	li	s10,0
    80000034:	814d                	li	s11,0
    80000036:	014e                	li	t3,0
    80000038:	814e                	li	t4,0
    8000003a:	014f                	li	t5,0
    8000003c:	814f                	li	t6,0
    8000003e:	f962                	lui	t0,0x1e
    80000040:	73a00230          	csrs	mstatus,t0
    80000044:	8542                	li	t0,1
    80000046:	fe02                	slli	t0,t0,0x1f
    80000048:	63d80200          	bgez	t0,0x80000058
    8000004c:	0545                	li	a0,1
    8000004e:	97120000          	auipc	t0,0x1
    80000052:	23a9a2fa          	sw	a0,-78(t0) # 0x80001000
    80000056:	ddbf                	j	0x8000004c
    80000058:	97020000          	auipc	t0,0x0
    8000005c:	93820209          	addi	t0,t0,144 # 0x800000e8
    80000060:	73905230          	csrw	mtvec,t0
    80000064:	73103000          	fssr	zero
    80000068:	530000f0          	fmv.w.x	ft0,zero
    8000006c:	d30000f0          	fmv.w.x	ft1,zero
    80000070:	530100f0          	fmv.w.x	ft2,zero
    80000074:	d30100f0          	fmv.w.x	ft3,zero
    80000078:	530200f0          	fmv.w.x	ft4,zero
    8000007c:	d30200f0          	fmv.w.x	ft5,zero
    80000080:	530300f0          	fmv.w.x	ft6,zero
    80000084:	d30300f0          	fmv.w.x	ft7,zero
    80000088:	530400f0          	fmv.w.x	fs0,zero
    8000008c:	d30400f0          	fmv.w.x	fs1,zero
    80000090:	530500f0          	fmv.w.x	fa0,zero
    80000094:	d30500f0          	fmv.w.x	fa1,zero
    80000098:	530600f0          	fmv.w.x	fa2,zero
    8000009c:	d30600f0          	fmv.w.x	fa3,zero
    800000a0:	530700f0          	fmv.w.x	fa4,zero
    800000a4:	d30700f0          	fmv.w.x	fa5,zero
    800000a8:	530800f0          	fmv.w.x	fa6,zero
    800000ac:	d30800f0          	fmv.w.x	fa7,zero
    800000b0:	530900f0          	fmv.w.x	fs2,zero
    800000b4:	d30900f0          	fmv.w.x	fs3,zero
    800000b8:	530a00f0          	fmv.w.x	fs4,zero
    800000bc:	d30a00f0          	fmv.w.x	fs5,zero
    800000c0:	530b00f0          	fmv.w.x	fs6,zero
    800000c4:	d30b00f0          	fmv.w.x	fs7,zero
    800000c8:	530c00f0          	fmv.w.x	fs8,zero
    800000cc:	d30c00f0          	fmv.w.x	fs9,zero
    800000d0:	530d00f0          	fmv.w.x	fs10,zero
    800000d4:	d30d00f0          	fmv.w.x	fs11,zero
    800000d8:	530e00f0          	fmv.w.x	ft8,zero
    800000dc:	d30e00f0          	fmv.w.x	ft9,zero
    800000e0:	530f00f0          	fmv.w.x	ft10,zero
    800000e4:	d30f00f0          	fmv.w.x	ft11,zero
    800000e8:	97020000          	auipc	t0,0x0
    800000ec:	93828203          	addi	t0,t0,56 # 0x80000120
    800000f0:	73905230          	csrw	mtvec,t0
    800000f4:	97210000          	auipc	gp,0x2
    800000f8:	9381c116          	addi	gp,gp,364 # 0x80002260
    800000fc:	1382f185          	addi	tp,gp,-1953
    80000100:	137202fc          	andi	tp,tp,-64
    80000104:	732540f1          	csrr	a0,mhartid
    80000108:	8545                	li	a1,1
    8000010a:	6370b500          	bleu	a1,a0,0x8000010a
    8000010e:	13161501          	slli	a2,a0,0x11
    80000112:	3292                	add	tp,tp,a2
    80000114:	13011500          	addi	sp,a0,1
    80000118:	4601                	slli	sp,sp,0x11
    8000011a:	1291                	add	sp,sp,tp
    8000011c:	6f102043          	j	0x8000154e
    80000120:	6d71                	addi	sp,sp,-272
    80000122:	06e4                	fsw	ft1,8(sp)
    80000124:	0ae8                	fsw	ft2,16(sp)
    80000126:	0eec                	fsw	ft3,24(sp)
    80000128:	12f0                	fsw	ft4,32(sp)
    8000012a:	16f4                	fsw	ft5,40(sp)
    8000012c:	1af8                	fsw	ft6,48(sp)
    8000012e:	1efc                	fsw	ft7,56(sp)
    80000130:	a2e0                	fsw	fs0,64(sp)
    80000132:	a6e4                	fsw	fs1,72(sp)
    80000134:	aae8                	fsw	fa0,80(sp)
    80000136:	aeec                	fsw	fa1,88(sp)
    80000138:	b2f0                	fsw	fa2,96(sp)
    8000013a:	b6f4                	fsw	fa3,104(sp)
    8000013c:	baf8                	fsw	fa4,112(sp)
    8000013e:	befc                	fsw	fa5,120(sp)
    80000140:	42e1                	fsw	fa6,128(sp)
    80000142:	46e5                	fsw	fa7,136(sp)
    80000144:	4ae9                	fsw	fs2,144(sp)
    80000146:	4eed                	fsw	fs3,152(sp)
    80000148:	52f1                	fsw	fs4,160(sp)
    8000014a:	56f5                	fsw	fs5,168(sp)
    8000014c:	5af9                	fsw	fs6,176(sp)
    8000014e:	5efd                	fsw	fs7,184(sp)
    80000150:	e2e1                	fsw	fs8,192(sp)
    80000152:	e6e5                	fsw	fs9,200(sp)
    80000154:	eae9                	fsw	fs10,208(sp)
    80000156:	eeed                	fsw	fs11,216(sp)
    80000158:	f2f1                	fsw	ft8,224(sp)
    8000015a:	f6f5                	fsw	ft9,232(sp)
    8000015c:	faf9                	fsw	ft10,240(sp)
    8000015e:	fefd                	fsw	ft11,248(sp)
    80000160:	73252034          	csrr	a0,mcause
    80000164:	f3251034          	csrr	a1,mepc
    80000168:	0a86                	mv	a2,sp
    8000016a:	ef104027          	jal	ra,0x800013de
    8000016e:	73101534          	csrw	mepc,a0
    80000172:	b7220000          	lui	t0,0x2
    80000176:	9b820280          	0x8002829b
    8000017a:	73a00230          	csrs	mstatus,t0
    8000017e:	a260                	flw	ft1,8(sp)
    80000180:	4261                	flw	ft2,16(sp)
    80000182:	e261                	flw	ft3,24(sp)
    80000184:	0272                	flw	ft4,32(sp)
    80000186:	a272                	flw	ft5,40(sp)
    80000188:	4273                	flw	ft6,48(sp)
    8000018a:	e273                	flw	ft7,56(sp)
    8000018c:	0664                	flw	fs0,64(sp)
    8000018e:	a664                	flw	fs1,72(sp)
    80000190:	4665                	flw	fa0,80(sp)
    80000192:	e665                	flw	fa1,88(sp)
    80000194:	0676                	flw	fa2,96(sp)
    80000196:	a676                	flw	fa3,104(sp)
    80000198:	4677                	flw	fa4,112(sp)
    8000019a:	e677                	flw	fa5,120(sp)
    8000019c:	0a68                	flw	fa6,128(sp)
    8000019e:	aa68                	flw	fa7,136(sp)
    800001a0:	4a69                	flw	fs2,144(sp)
    800001a2:	ea69                	flw	fs3,152(sp)
    800001a4:	0a7a                	flw	fs4,160(sp)
    800001a6:	aa7a                	flw	fs5,168(sp)
    800001a8:	4a7b                	flw	fs6,176(sp)
    800001aa:	ea7b                	flw	fs7,184(sp)
    800001ac:	0e6c                	flw	fs8,192(sp)
    800001ae:	ae6c                	flw	fs9,200(sp)
    800001b0:	4e6d                	flw	fs10,208(sp)
    800001b2:	ee6d                	flw	fs11,216(sp)
    800001b4:	0e7e                	flw	ft8,224(sp)
    800001b6:	ae7e                	flw	ft9,232(sp)
    800001b8:	4e7f                	flw	ft10,240(sp)
    800001ba:	ee7f                	flw	ft11,248(sp)
    800001bc:	5161                	addi	sp,sp,272
    800001be:	73002030          	mret
	...
    80001046:	0000                	unimp
    80001048:	0d71                	addi	sp,sp,-352
    8000104a:	a2ea                	fsw	fs0,84(sp)
    8000104c:	a6e6                	fsw	fs1,76(sp)
    8000104e:	cae2                	fsw	fs2,68(sp)
    80001050:	52fa                	fsw	fs4,52(sp)
    80001052:	5af2                	fsw	fs6,36(sp)
    80001054:	5eee                	fsw	fs7,28(sp)
    80001056:	86ee                	fsw	ft1,92(sp)
    80001058:	4efe                	fsw	fs3,60(sp)
    8000105a:	56f6                	fsw	fs5,44(sp)
    8000105c:	62ea                	fsw	fs8,20(sp)
    8000105e:	66e6                	fsw	fs9,12(sp)
    80001060:	6ae2                	fsw	fs10,4(sp)
    80001062:	2a89                	mv	s2,a0
    80001064:	ae84                	mv	s1,a1
    80001066:	3284                	mv	s0,a2
    80001068:	b68b                	mv	s7,a3
    8000106a:	130a5002          	li	s4,37
    8000106e:	171b0000          	auipc	s6,0x1
    80001072:	130b2b80          	addi	s6,s6,-2046 # 0x80001870
    80001076:	29a0                	j	0x80001080
    80001078:	31c1                	beqz	a0,0x800010bc
    8000107a:	a685                	mv	a1,s1
    8000107c:	0504                	addi	s0,s0,1
    8000107e:	0299                	jalr	s2
    80001080:	03450400          	lbu	a0,0(s0)
    80001084:	e31a45ff          	bne	a0,s4,0x80001078
    80001088:	83461400          	lbu	a3,1(s0)
    8000108c:	930a1400          	addi	s5,s0,1
    80001090:	5687                	mv	a4,s5
    80001092:	130c0002          	li	s8,32
    80001096:	fd59                	li	s3,-1
    80001098:	fd5c                	li	s9,-1
    8000109a:	0145                	li	a0,0
    8000109c:	13065005          	li	a2,85
    800010a0:	a545                	li	a1,9
    800010a2:	9b87d6fd          	0xfdd6879b
    800010a6:	93f7f70f          	andi	a5,a5,255
    800010aa:	13041700          	addi	s0,a4,1
    800010ae:	6365f61c          	bltu	a2,a5,0x80001278
    800010b2:	8a07                	slli	a5,a5,0x2
    800010b4:	da97                	add	a5,a5,s6
    800010b6:	9c43                	lw	a5,0(a5)
    800010b8:	da97                	add	a5,a5,s6
    800010ba:	8287                	jr	a5
    800010bc:	f660                	flw	ft1,92(sp)
    800010be:	5664                	flw	fs0,84(sp)
    800010c0:	b664                	flw	fs1,76(sp)
    800010c2:	1669                	flw	fs2,68(sp)
    800010c4:	f279                	flw	fs3,60(sp)
    800010c6:	527a                	flw	fs4,52(sp)
    800010c8:	b27a                	flw	fs5,44(sp)
    800010ca:	127b                	flw	fs6,36(sp)
    800010cc:	f26b                	flw	fs7,28(sp)
    800010ce:	526c                	flw	fs8,20(sp)
    800010d0:	b26c                	flw	fs9,12(sp)
    800010d2:	126d                	flw	fs10,4(sp)
    800010d4:	3561                	addi	sp,sp,352
    800010d6:	8280                	ret
    800010d8:	368c                	mv	s8,a3
    800010da:	83461700          	lbu	a3,1(a4)
    800010de:	2287                	mv	a4,s0
    800010e0:	c9b7                	j	0x800010a2
    800010e2:	2147                	li	a4,8
    800010e4:	8547                	li	a5,1
    800010e6:	93868b00          	addi	a3,s7,8
    800010ea:	63c9a714          	blt	a5,a0,0x8000123c
    800010ee:	63170514          	bnez	a0,0x8000123c
    800010f2:	83e70b00          	0xbe783
    800010f6:	b68b                	mv	s7,a3
    800010f8:	b3f9e702          	remu	s3,a5,a4
    800010fc:	012c                	jal	0x8000130c
    800010fe:	5400                	addi	a3,sp,4
    80001100:	854a                	li	s5,1
    80001102:	4ec0                	sw	s3,0(sp)
    80001104:	63f4e700          	bleu	a4,a5,0x8000110c
    80001108:	7daa                	j	0x800012c6
    8000110a:	ea8a                	mv	s5,s10
    8000110c:	b3d7e702          	divu	a5,a5,a4
    80001110:	9106                	addi	a3,a3,4
    80001112:	1b8d1a00          	0x1a8d1b
    80001116:	b3f9e702          	remu	s3,a5,a4
    8000111a:	23ae36ff          	sw	s3,-4(a3)
    8000111e:	e3f6e7fe          	bleu	a4,a5,0x8000110a
    80001122:	63599d01          	ble	s9,s10,0x80001134
    80001126:	812c                	jal	0x80001376
    80001128:	fd3c                	jal	0x80000c26
    8000112a:	a685                	mv	a1,s1
    8000112c:	6285                	mv	a0,s8
    8000112e:	0299                	jalr	s2
    80001130:	e34c9dff          	blt	s10,s9,0x80001128
    80001134:	139c2a00          	slli	s8,s5,0x2
    80001138:	b30a8101          	add	s5,sp,s8
    8000113c:	338c8a41          	sub	s8,s5,s8
    80001140:	a54c                	li	s9,9
    80001142:	21a0                	j	0x8000114a
    80001144:	83a9caff          	lw	s3,-4(s5)
    80001148:	f11a                	addi	s5,s5,-4
    8000114a:	13057005          	li	a0,87
    8000114e:	63e43c01          	bltu	s9,s3,0x80001156
    80001152:	13050003          	li	a0,48
    80001156:	a685                	mv	a1,s1
    80001158:	3b053501          	0x135053b
    8000115c:	0299                	jalr	s2
    8000115e:	e3135cff          	bne	s8,s5,0x80001144
    80001162:	39bf                	j	0x80001080
    80001164:	93c7fcff          	not	a5,s9
    80001168:	fd97                	srai	a5,a5,0x3f
    8000116a:	b3fcfc00          	and	s9,s9,a5
    8000116e:	83461700          	lbu	a3,1(a4)
    80001172:	812c                	jal	0x800013c2
    80001174:	2287                	mv	a4,s0
    80001176:	35b7                	j	0x800010a2
    80001178:	4147                	li	a4,16
    8000117a:	adb7                	j	0x800010e4
    8000117c:	9b8906fd          	0xfd06899b
    80001180:	83461700          	lbu	a3,1(a4)
    80001184:	2287                	mv	a4,s0
    80001186:	9b8706fd          	0xfd06879b
    8000118a:	1b880600          	0x6881b
    8000118e:	63e5f502          	bltu	a1,a5,0x800011b8
    80001192:	0507                	addi	a4,a4,1
    80001194:	9b972900          	0x29979b
    80001198:	83460700          	lbu	a3,0(a4)
    8000119c:	bb893701          	0x13789bb
    800011a0:	9b991900          	0x19999b
    800011a4:	bb890901          	0x10989bb
    800011a8:	9b8706fd          	0xfd06879b
    800011ac:	9b8909fd          	0xfd09899b
    800011b0:	1b880600          	0x6881b
    800011b4:	e3fff5fc          	bleu	a5,a1,0x80001192
    800011b8:	e3d50cee          	bgez	s9,0x800010a2
    800011bc:	ce8c                	mv	s9,s3
    800011be:	fd59                	li	s3,-1
    800011c0:	cdb5                	j	0x800010a2
    800011c2:	03a50b00          	lw	a0,0(s7)
    800011c6:	a685                	mv	a1,s1
    800011c8:	a10b                	addi	s7,s7,8
    800011ca:	0299                	jalr	s2
    800011cc:	55bd                	j	0x80001080
    800011ce:	83ba0b00          	0xbba83
    800011d2:	a10b                	addi	s7,s7,8
    800011d4:	638b0a10          	beqz	s5,0x800012ea
    800011d8:	6351900f          	blez	s9,0x800012ba
    800011dc:	9307d002          	li	a5,45
    800011e0:	6316fc0a          	bne	s8,a5,0x8000128c
    800011e4:	03c50a00          	lbu	a0,0(s5)
    800011e8:	05c1                	beqz	a0,0x80001208
    800011ea:	7d5c                	li	s8,-1
    800011ec:	63c50900          	bltz	s3,0x800011f6
    800011f0:	fd39                	jal	0x80000eee
    800011f2:	63898901          	beq	s3,s8,0x80001204
    800011f6:	a685                	mv	a1,s1
    800011f8:	850a                	addi	s5,s5,1
    800011fa:	0299                	jalr	s2
    800011fc:	03c50a00          	lbu	a0,0(s5)
    80001200:	fd3c                	jal	0x80000cfe
    80001202:	6df5                	bnez	a0,0x800011ec
    80001204:	e35e90e7          	blez	s9,0x80001080
    80001208:	fd3c                	jal	0x80000d06
    8000120a:	a685                	mv	a1,s1
    8000120c:	13050002          	li	a0,32
    80001210:	0299                	jalr	s2
    80001212:	e39b0cfe          	bnez	s9,0x80001208
    80001216:	adb5                	j	0x80001080
    80001218:	2947                	li	a4,10
    8000121a:	e9b5                	j	0x800010e4
    8000121c:	83461700          	lbu	a3,1(a4)
    80001220:	0525                	jal	0x80001840
    80001222:	2287                	mv	a4,s0
    80001224:	bdbd                	j	0x800010a2
    80001226:	13050003          	li	a0,48
    8000122a:	a685                	mv	a1,s1
    8000122c:	0299                	jalr	s2
    8000122e:	a685                	mv	a1,s1
    80001230:	13058007          	li	a0,120
    80001234:	0299                	jalr	s2
    80001236:	93868b00          	addi	a3,s7,8
    8000123a:	4147                	li	a4,16
    8000123c:	83b70b00          	0xbb783
    80001240:	b68b                	mv	s7,a3
    80001242:	5dbd                	j	0x800010f8
    80001244:	8547                	li	a5,1
    80001246:	938a8b00          	addi	s5,s7,8
    8000124a:	63c3a700          	blt	a5,a0,0x80001250
    8000124e:	51c1                	beqz	a0,0x800012d2
    80001250:	83b90b00          	0xbb983
    80001254:	63c20908          	bltz	s3,0x800012d8
    80001258:	ce87                	mv	a5,s3
    8000125a:	d68b                	mv	s7,s5
    8000125c:	2947                	li	a4,10
    8000125e:	69bd                	j	0x800010f8
    80001260:	a685                	mv	a1,s1
    80001262:	13055002          	li	a0,37
    80001266:	0299                	jalr	s2
    80001268:	21bd                	j	0x80001080
    8000126a:	83a90b00          	lw	s3,0(s7)
    8000126e:	83461700          	lbu	a3,1(a4)
    80001272:	a10b                	addi	s7,s7,8
    80001274:	2287                	mv	a4,s0
    80001276:	89b7                	j	0x800011b8
    80001278:	a685                	mv	a1,s1
    8000127a:	13055002          	li	a0,37
    8000127e:	0299                	jalr	s2
    80001280:	5684                	mv	s0,s5
    80001282:	fdbb                	j	0x80001080
    80001284:	970a0000          	auipc	s5,0x0
    80001288:	938a4a74          	addi	s5,s5,1860 # 0x800019c8
    8000128c:	638d0906          	beqz	s3,0x80001306
    80001290:	83c70a00          	lbu	a5,0(s5)
    80001294:	adcb                	beqz	a5,0x80001306
    80001296:	93871a00          	addi	a5,s5,1
    8000129a:	33863a01          	add	a2,s5,s3
    8000129e:	29a0                	j	0x800012a8
    800012a0:	8507                	addi	a5,a5,1
    800012a2:	03c7f7ff          	lbu	a4,-1(a5)
    800012a6:	25cb                	beqz	a4,0x80001316
    800012a8:	be86                	mv	a3,a5
    800012aa:	e31bf6fe          	bne	a2,a5,0x800012a0
    800012ae:	bb065641          	0x415606bb
    800012b2:	bb8cdc40          	0x40dc8cbb
    800012b6:	63489005          	bgtz	s9,0x80001306
    800012ba:	03c50a00          	lbu	a0,0(s5)
    800012be:	e30105dc          	beqz	a0,0x80001080
    800012c2:	7d5c                	li	s8,-1
    800012c4:	25b7                	j	0x800011ec
    800012c6:	8547                	li	a5,1
    800012c8:	814a                	li	s5,0
    800012ca:	054d                	li	s10,1
    800012cc:	e3cd97e5          	blt	a5,s9,0x80001126
    800012d0:	95b5                	j	0x80001134
    800012d2:	83a90b00          	lw	s3,0(s7)
    800012d6:	bdbf                	j	0x80001254
    800012d8:	a685                	mv	a1,s1
    800012da:	1305d002          	li	a0,45
    800012de:	0299                	jalr	s2
    800012e0:	d68b                	mv	s7,s5
    800012e2:	b3073041          	neg	a5,s3
    800012e6:	2947                	li	a4,10
    800012e8:	01bd                	j	0x800010f8
    800012ea:	63569001          	blez	s9,0x800012f6
    800012ee:	9307d002          	li	a5,45
    800012f2:	e319fcf8          	bne	s8,a5,0x80001284
    800012f6:	970a0000          	auipc	s5,0x0
    800012fa:	938a2a6d          	addi	s5,s5,1746 # 0x800019c8
    800012fe:	13058002          	li	a0,40
    80001302:	7d5c                	li	s8,-1
    80001304:	e5b5                	j	0x800011ec
    80001306:	012c                	jal	0x80001516
    80001308:	fd3c                	jal	0x80000e06
    8000130a:	a685                	mv	a1,s1
    8000130c:	6285                	mv	a0,s8
    8000130e:	0299                	jalr	s2
    80001310:	e39c0cfe          	bnez	s9,0x80001308
    80001314:	5db7                	j	0x800012ba
    80001316:	bb865641          	0x415686bb
    8000131a:	61bf                	j	0x800012b2
    8000131c:	9c61                	flw	fa5,0(a1)
    8000131e:	2380a700          	sb	a0,0(a5)
    80001322:	9c61                	flw	fa5,0(a1)
    80001324:	8507                	addi	a5,a5,1
    80001326:	9ce1                	fsw	fa5,0(a1)
    80001328:	8280                	ret
    8000132a:	4111                	addi	sp,sp,-16
    8000132c:	22e0                	fsw	fs0,0(sp)
    8000132e:	83250204          	lw	a1,64(tp) # 0x40
    80001332:	93070200          	mv	a5,tp
    80001336:	06e4                	fsw	ft1,8(sp)
    80001338:	ae97                	add	a5,a5,a1
    8000133a:	1b871500          	0x15871b
    8000133e:	2380a700          	sb	a0,0(a5)
    80001342:	2320e204          	sw	a4,64(tp) # 0x40
    80001346:	a947                	li	a5,10
    80001348:	630bf500          	beq	a0,a5,0x8000135e
    8000134c:	9307f003          	li	a5,63
    80001350:	6307f700          	beq	a4,a5,0x8000135e
    80001354:	a260                	flw	ft1,8(sp)
    80001356:	0264                	flw	fs0,0(sp)
    80001358:	0145                	li	a0,0
    8000135a:	4101                	addi	sp,sp,16
    8000135c:	8280                	ret
    8000135e:	93070200          	mv	a5,tp
    80001362:	3e97                	add	a4,a4,a5
    80001364:	13050200          	mv	a0,tp
    80001368:	23000700          	sb	zero,0(a4)
    8000136c:	ef00e03c          	jal	ra,0x8000173a
    80001370:	23200204          	sw	zero,64(tp) # 0x40
    80001374:	a260                	flw	ft1,8(sp)
    80001376:	0264                	flw	fs0,0(sp)
    80001378:	0145                	li	a0,0
    8000137a:	4101                	addi	sp,sp,16
    8000137c:	8280                	ret
    8000137e:	f32700b0          	csrr	a5,mcycle
    80001382:	17070000          	auipc	a4,0x0
    80001386:	1307e76d          	addi	a4,a4,1758 # 0x80001a60
    8000138a:	19e9                	bnez	a0,0x800013a0
    8000138c:	1463                	flw	fa3,0(a4)
    8000138e:	17060000          	auipc	a2,0x0
    80001392:	13062664          	addi	a2,a2,1602 # 0x800019d0
    80001396:	97050000          	auipc	a1,0x0
    8000139a:	23bdc56c          	0x6cc5bd23
    8000139e:	958f                	sub	a5,a5,a3
    800013a0:	97060000          	auipc	a3,0x0
    800013a4:	23b0f66c          	0x6cf6b023
    800013a8:	f32720b0          	csrr	a5,minstret
    800013ac:	19e9                	bnez	a0,0x800013c2
    800013ae:	1867                	flw	fa4,8(a4)
    800013b0:	97060000          	auipc	a3,0x0
    800013b4:	93868662          	addi	a3,a3,1576 # 0x800019d8
    800013b8:	17060000          	auipc	a2,0x0
    800013bc:	2330d66c          	0x6cd63023
    800013c0:	998f                	sub	a5,a5,a4
    800013c2:	17070000          	auipc	a4,0x0
    800013c6:	2333f76a          	0x6af73323
    800013ca:	8280                	ret
    800013cc:	93171500          	slli	a5,a0,0x1
    800013d0:	93e71700          	ori	a5,a5,1
    800013d4:	17070000          	auipc	a4,0x0
    800013d8:	2336f7c2          	0xc2f73623
    800013dc:	01a0                	j	0x800013dc
    800013de:	8567                	lui	a5,0x1
    800013e0:	938737a7          	addi	a5,a5,-1421 # 0xa73
    800013e4:	17070000          	auipc	a4,0x0
    800013e8:	233ef7c0          	0xc0f73e23
    800013ec:	01a0                	j	0x800013ec
    800013ee:	4111                	addi	sp,sp,-16
    800013f0:	06e4                	fsw	ft1,8(sp)
    800013f2:	eff0bffd          	jal	ra,0x800013cc
    800013f6:	9307d010          	li	a5,269
    800013fa:	17070000          	auipc	a4,0x0
    800013fe:	2333f7c0          	0xc0f73323
    80001402:	01a0                	j	0x80001402
    80001404:	6f006033          	j	0x8000173a
    80001408:	11c1                	beqz	a0,0x8000140c
    8000140a:	01a0                	j	0x8000140a
    8000140c:	8280                	ret
    8000140e:	7971                	addi	sp,sp,-48
    80001410:	2a86                	mv	a2,a0
    80001412:	06f4                	fsw	ft1,40(sp)
    80001414:	2800                	addi	a0,sp,8
    80001416:	93067101          	addi	a3,sp,23
    8000141a:	2548                	li	a6,9
    8000141c:	11a0                	j	0x80001420
    8000141e:	be86                	mv	a3,a5
    80001420:	9377f600          	andi	a5,a2,15
    80001424:	93050003          	li	a1,48
    80001428:	13f7f70f          	andi	a4,a5,255
    8000142c:	6374f800          	bleu	a5,a6,0x80001434
    80001430:	93057005          	li	a1,87
    80001434:	bb07b700          	0xb707bb
    80001438:	2380f600          	sb	a5,0(a3)
    8000143c:	1182                	srli	a2,a2,0x4
    8000143e:	9387f6ff          	addi	a5,a3,-1
    80001442:	e31ed5fc          	bne	a0,a3,0x8000141e
    80001446:	230c0100          	sb	zero,24(sp)
    8000144a:	ef00002f          	jal	ra,0x8000173a
    8000144e:	a270                	flw	ft1,40(sp)
    80001450:	4561                	addi	sp,sp,48
    80001452:	8280                	ret
    80001454:	1d71                	addi	sp,sp,-96
    80001456:	13038102          	addi	t1,sp,40
    8000145a:	2ef4                	fsw	fa1,40(sp)
    8000145c:	32f8                	fsw	fa2,48(sp)
    8000145e:	36fc                	fsw	fa3,56(sp)
    80001460:	2a86                	mv	a2,a0
    80001462:	9a86                	mv	a3,t1
    80001464:	17050000          	auipc	a0,0x0
    80001468:	130565ec          	addi	a0,a0,-314 # 0x8000132a
    8000146c:	8145                	li	a1,0
    8000146e:	06ec                	fsw	ft1,24(sp)
    80001470:	bae0                	fsw	fa4,64(sp)
    80001472:	bee4                	fsw	fa5,72(sp)
    80001474:	c2e8                	fsw	fa6,80(sp)
    80001476:	c6ec                	fsw	fa7,88(sp)
    80001478:	1ae4                	fsw	ft6,8(sp)
    8000147a:	eff0ffbc          	jal	ra,0x80001048
    8000147e:	e260                	flw	ft1,24(sp)
    80001480:	0145                	li	a0,0
    80001482:	2561                	addi	sp,sp,96
    80001484:	8280                	ret
    80001486:	1d71                	addi	sp,sp,-96
    80001488:	13030103          	addi	t1,sp,48
    8000148c:	22f0                	fsw	fs0,32(sp)
    8000148e:	2ae4                	fsw	fa0,8(sp)
    80001490:	32f8                	fsw	fa2,48(sp)
    80001492:	36fc                	fsw	fa3,56(sp)
    80001494:	2a84                	mv	s0,a0
    80001496:	2e86                	mv	a2,a1
    80001498:	17050000          	auipc	a0,0x0
    8000149c:	130545e8          	addi	a0,a0,-380 # 0x8000131c
    800014a0:	2c00                	addi	a1,sp,8
    800014a2:	9a86                	mv	a3,t1
    800014a4:	06f4                	fsw	ft1,40(sp)
    800014a6:	bee4                	fsw	fa5,72(sp)
    800014a8:	bae0                	fsw	fa4,64(sp)
    800014aa:	c2e8                	fsw	fa6,80(sp)
    800014ac:	c6ec                	fsw	fa7,88(sp)
    800014ae:	1aec                	fsw	ft6,24(sp)
    800014b0:	eff09fb9          	jal	ra,0x80001048
    800014b4:	a267                	flw	fa5,8(sp)
    800014b6:	23800700          	sb	zero,0(a5)
    800014ba:	2265                	flw	fa0,8(sp)
    800014bc:	a270                	flw	ft1,40(sp)
    800014be:	019d                	0x9d01
    800014c0:	0274                	flw	fs0,32(sp)
    800014c2:	2561                	addi	sp,sp,96
    800014c4:	8280                	ret
    800014c6:	b3e7c500          	or	a5,a1,a2
    800014ca:	c98f                	or	a5,a5,a0
    800014cc:	9d8b                	andi	a5,a5,7
    800014ce:	b306c500          	add	a3,a0,a2
    800014d2:	91cf                	beqz	a5,0x800014ee
    800014d4:	2e96                	add	a2,a2,a1
    800014d6:	aa87                	mv	a5,a0
    800014d8:	6377d502          	bleu	a3,a0,0x80001506
    800014dc:	8505                	addi	a1,a1,1
    800014de:	03c7f5ff          	lbu	a4,-1(a1) # 0x80001395
    800014e2:	8507                	addi	a5,a5,1
    800014e4:	a38fe7fe          	sb	a4,-1(a5)
    800014e8:	e31ab6fe          	bne	a2,a1,0x800014dc
    800014ec:	8280                	ret
    800014ee:	e37fd5fe          	bleu	a3,a0,0x800014ec
    800014f2:	aa87                	mv	a5,a0
    800014f4:	a105                	addi	a1,a1,8
    800014f6:	03b785ff          	0xff85b703
    800014fa:	a107                	addi	a5,a5,8
    800014fc:	23bce7fe          	0xfee7bc23
    80001500:	e3ead7fe          	bltu	a5,a3,0x800014f4
    80001504:	8280                	ret
    80001506:	8280                	ret
    80001508:	b367c500          	or	a5,a0,a2
    8000150c:	9d8b                	andi	a5,a5,7
    8000150e:	2a96                	add	a2,a2,a0
    80001510:	93f5f50f          	andi	a1,a1,255
    80001514:	91cb                	beqz	a5,0x80001528
    80001516:	aa87                	mv	a5,a0
    80001518:	637ac502          	bleu	a2,a0,0x8000154c
    8000151c:	8507                	addi	a5,a5,1
    8000151e:	a38fb7fe          	sb	a1,-1(a5)
    80001522:	e31df6fe          	bne	a2,a5,0x8000151c
    80001526:	8280                	ret
    80001528:	13978500          	slli	a4,a1,0x8
    8000152c:	4d8f                	or	a4,a4,a1
    8000152e:	93150701          	slli	a1,a4,0x10
    80001532:	4d8f                	or	a4,a4,a1
    80001534:	93170702          	slli	a5,a4,0x20
    80001538:	5d8f                	or	a4,a4,a5
    8000153a:	e376c5fe          	bleu	a2,a0,0x80001526
    8000153e:	aa87                	mv	a5,a0
    80001540:	a107                	addi	a5,a5,8
    80001542:	23bce7fe          	0xfee7bc23
    80001546:	e3edc7fe          	bltu	a5,a2,0x80001540
    8000154a:	8280                	ret
    8000154c:	8280                	ret
    8000154e:	7171                	addi	sp,sp,-176
    80001550:	22f1                	fsw	fs0,160(sp)
    80001552:	26ed                	fsw	fs1,152(sp)
    80001554:	93040200          	mv	s1,tp
    80001558:	13040200          	mv	s0,tp
    8000155c:	33848440          	sub	s0,s1,s0
    80001560:	2286                	mv	a2,s0
    80001562:	4ee5                	fsw	fs3,136(sp)
    80001564:	52e1                	fsw	fs4,128(sp)
    80001566:	aa89                	mv	s3,a0
    80001568:	2e8a                	mv	s4,a1
    8000156a:	1285                	mv	a0,tp
    8000156c:	97050000          	auipc	a1,0x0
    80001570:	93854551          	addi	a1,a1,1300 # 0x80001a80
    80001574:	06f5                	fsw	ft1,168(sp)
    80001576:	4ae9                	fsw	fs2,144(sp)
    80001578:	d6fc                	fsw	fs5,120(sp)
    8000157a:	928a                	mv	s5,tp
    8000157c:	eff0bff4          	jal	ra,0x800014c6
    80001580:	13064204          	addi	a2,tp,68 # 0x44
    80001584:	058e                	sub	a2,a2,s1
    80001586:	8145                	li	a1,0
    80001588:	33858a00          	add	a0,s5,s0
    8000158c:	eff0dff7          	jal	ra,0x80001508
    80001590:	4e85                	mv	a0,s3
    80001592:	d285                	mv	a1,s4
    80001594:	eff05fe7          	jal	ra,0x80001408
    80001598:	8145                	li	a1,0
    8000159a:	0145                	li	a0,0
    8000159c:	ef00c02b          	jal	ra,0x80001858
    800015a0:	17040000          	auipc	s0,0x0
    800015a4:	1304044c          	addi	s0,s0,1216 # 0x80001a60
    800015a8:	1460                	flw	fa3,0(s0)
    800015aa:	1309f103          	addi	s2,sp,63
    800015ae:	137909fc          	andi	s2,s2,-64
    800015b2:	aa89                	mv	s3,a0
    800015b4:	95e6                	bnez	a3,0x800015e0
    800015b6:	1464                	flw	fa3,8(s0)
    800015b8:	81e6                	bnez	a3,0x800015c0
    800015ba:	4e85                	mv	a0,s3
    800015bc:	eff01fe1          	jal	ra,0x800013cc
    800015c0:	ca84                	mv	s1,s2
    800015c2:	106c                	flw	fa2,24(s0)
    800015c4:	2685                	mv	a0,s1
    800015c6:	97050000          	auipc	a1,0x0
    800015ca:	9385a543          	addi	a1,a1,1082 # 0x80001a00
    800015ce:	eff09feb          	jal	ra,0x80001486
    800015d2:	aa94                	add	s1,s1,a0
    800015d4:	e30399fe          	beq	s2,s1,0x800015ba
    800015d8:	4a85                	mv	a0,s2
    800015da:	ef000016          	jal	ra,0x8000173a
    800015de:	f1bf                	j	0x800015ba
    800015e0:	1068                	flw	fa2,16(s0)
    800015e2:	97050000          	auipc	a1,0x0
    800015e6:	9385e541          	addi	a1,a1,1054 # 0x80001a00
    800015ea:	4a85                	mv	a0,s2
    800015ec:	eff0bfe9          	jal	ra,0x80001486
    800015f0:	1464                	flw	fa3,8(s0)
    800015f2:	b304a900          	add	s1,s2,a0
    800015f6:	f9de                	beqz	a3,0x800015d4
    800015f8:	e9b7                	j	0x800015c2
    800015fa:	83470500          	lbu	a5,0(a0)
    800015fe:	89cb                	beqz	a5,0x80001610
    80001600:	aa87                	mv	a5,a0
    80001602:	8507                	addi	a5,a5,1
    80001604:	03c70700          	lbu	a4,0(a5)
    80001608:	6dff                	bnez	a4,0x80001602
    8000160a:	3385a740          	sub	a0,a5,a0
    8000160e:	8280                	ret
    80001610:	0145                	li	a0,0
    80001612:	8280                	ret
    80001614:	91cd                	beqz	a1,0x80001630
    80001616:	83470500          	lbu	a5,0(a0)
    8000161a:	8dc3                	beqz	a5,0x8000163c
    8000161c:	b306b500          	add	a3,a0,a1
    80001620:	aa87                	mv	a5,a0
    80001622:	21a0                	j	0x8000162a
    80001624:	03c70700          	lbu	a4,0(a5)
    80001628:	11c7                	beqz	a4,0x80001634
    8000162a:	8507                	addi	a5,a5,1
    8000162c:	e39cd7fe          	bne	a5,a3,0x80001624
    80001630:	2e85                	mv	a0,a1
    80001632:	8280                	ret
    80001634:	b385a740          	sub	a1,a5,a0
    80001638:	2e85                	mv	a0,a1
    8000163a:	8280                	ret
    8000163c:	8145                	li	a1,0
    8000163e:	cdbf                	j	0x80001630
    80001640:	0505                	addi	a0,a0,1
    80001642:	8347f5ff          	lbu	a5,-1(a0)
    80001646:	8505                	addi	a1,a1,1
    80001648:	03c7f5ff          	lbu	a4,-1(a1)
    8000164c:	99c7                	beqz	a5,0x8000165a
    8000164e:	e389e7fe          	beq	a5,a4,0x80001640
    80001652:	1b850700          	0x7851b
    80001656:	199d                	0x9d19
    80001658:	8280                	ret
    8000165a:	0145                	li	a0,0
    8000165c:	edbf                	j	0x80001656
    8000165e:	aa87                	mv	a5,a0
    80001660:	8505                	addi	a1,a1,1
    80001662:	03c7f5ff          	lbu	a4,-1(a1)
    80001666:	8507                	addi	a5,a5,1
    80001668:	a38fe7fe          	sb	a4,-1(a5)
    8000166c:	75fb                	bnez	a4,0x80001660
    8000166e:	8280                	ret
    80001670:	83470500          	lbu	a5,0(a0)
    80001674:	13070002          	li	a4,32
    80001678:	6397e700          	bne	a5,a4,0x80001686
    8000167c:	0505                	addi	a0,a0,1
    8000167e:	83470500          	lbu	a5,0(a0)
    80001682:	e38de7fe          	beq	a5,a4,0x8000167c
    80001686:	1b8757fd          	0xfd57871b
    8000168a:	1377d70f          	andi	a4,a4,253
    8000168e:	15c7                	beqz	a4,0x800016ba
    80001690:	83460500          	lbu	a3,0(a0)
    80001694:	aa87                	mv	a5,a0
    80001696:	0146                	li	a2,0
    80001698:	85ce                	beqz	a3,0x800016d0
    8000169a:	0145                	li	a0,0
    8000169c:	8507                	addi	a5,a5,1
    8000169e:	9b8506fd          	0xfd06859b
    800016a2:	13172500          	slli	a4,a0,0x2
    800016a6:	83c60700          	lbu	a3,0(a5)
    800016aa:	3a95                	add	a0,a0,a4
    800016ac:	0605                	slli	a0,a0,0x1
    800016ae:	2e95                	add	a0,a0,a1
    800016b0:	f5f6                	bnez	a3,0x8000169c
    800016b2:	19c2                	beqz	a2,0x800016b8
    800016b4:	3305a040          	neg	a0,a0
    800016b8:	8280                	ret
    800016ba:	83461500          	lbu	a3,1(a0)
    800016be:	938737fd          	addi	a5,a5,-45
    800016c2:	13b61700          	seqz	a2,a5
    800016c6:	93071500          	addi	a5,a0,1
    800016ca:	e1fa                	bnez	a3,0x8000169a
    800016cc:	0145                	li	a0,0
    800016ce:	d5b7                	j	0x800016b2
    800016d0:	0145                	li	a0,0
    800016d2:	8280                	ret
    800016d4:	0cc1                	sw	a1,0(a0)
    800016d6:	8280                	ret
    800016d8:	0841                	lw	a0,0(a0)
    800016da:	0125                	jal	0x80001cda
    800016dc:	8280                	ret
    800016de:	b7070060          	lui	a5,0x60000
    800016e2:	03a54710          	lw	a0,260(a5) # 0x60000104
    800016e6:	1189                	andi	a0,a0,4
    800016e8:	8280                	ret
    800016ea:	37070060          	lui	a4,0x60000
    800016ee:	83274710          	lw	a5,260(a4) # 0x60000104
    800016f2:	918b                	andi	a5,a5,4
    800016f4:	eddf                	beqz	a5,0x800016ee
    800016f6:	8280                	ret
    800016f8:	0111                	addi	sp,sp,-32
    800016fa:	22e8                	fsw	fs0,16(sp)
    800016fc:	06ec                	fsw	ft1,24(sp)
    800016fe:	26e4                	fsw	fs1,8(sp)
    80001700:	a947                	li	a5,10
    80001702:	2a84                	mv	s0,a0
    80001704:	6313f502          	bne	a0,a5,0x8000172a
    80001708:	b7040060          	lui	s1,0x60000
    8000170c:	eff0fffd          	jal	ra,0x800016ea
    80001710:	23a08410          	sw	s0,256(s1) # 0x60000100
    80001714:	eff07ffd          	jal	ra,0x800016ea
    80001718:	b547                	li	a5,13
    8000171a:	23a0f410          	sw	a5,256(s1)
    8000171e:	4264                	flw	fs0,16(sp)
    80001720:	e260                	flw	ft1,24(sp)
    80001722:	a264                	flw	fs1,8(sp)
    80001724:	0561                	addi	sp,sp,32
    80001726:	6ff05ffc          	j	0x800016ea
    8000172a:	eff01ffc          	jal	ra,0x800016ea
    8000172e:	0124                	jal	0x8000192e
    80001730:	b7070060          	lui	a5,0x60000
    80001734:	23a08710          	sw	s0,256(a5) # 0x60000100
    80001738:	ddb7                	j	0x8000171e
    8000173a:	4111                	addi	sp,sp,-16
    8000173c:	22e0                	fsw	fs0,0(sp)
    8000173e:	06e4                	fsw	ft1,8(sp)
    80001740:	2a84                	mv	s0,a0
    80001742:	03450400          	lbu	a0,0(s0)
    80001746:	09e5                	bnez	a0,0x80001750
    80001748:	a260                	flw	ft1,8(sp)
    8000174a:	0264                	flw	fs0,0(sp)
    8000174c:	4101                	addi	sp,sp,16
    8000174e:	8280                	ret
    80001750:	eff09ffa          	jal	ra,0x800016f8
    80001754:	0504                	addi	s0,s0,1
    80001756:	f5b7                	j	0x80001742
    80001758:	37070060          	lui	a4,0x60000
    8000175c:	9307200a          	li	a5,162
    80001760:	2326f710          	sw	a5,268(a4) # 0x6000010c
    80001764:	b7070080          	lui	a5,0x80000
    80001768:	8d27                	jal	0x80001eca
    8000176a:	17050000          	auipc	a0,0x0
    8000176e:	2324f710          	sw	a5,264(a4)
    80001772:	1305652a          	addi	a0,a0,678 # 0x80001a10
    80001776:	6ff05ffc          	j	0x8000173a
    8000177a:	97070000          	auipc	a5,0x0
    8000177e:	9387672d          	addi	a5,a5,726 # 0x80001a50
    80001782:	1377f500          	andi	a4,a0,15
    80001786:	3e97                	add	a4,a4,a5
    80001788:	03470700          	lbu	a4,0(a4)
    8000178c:	1181                	srli	a0,a0,0x4
    8000178e:	aa97                	add	a5,a5,a0
    80001790:	a380e500          	sb	a4,1(a1)
    80001794:	83c70700          	lbu	a5,0(a5)
    80001798:	2380f500          	sb	a5,0(a1)
    8000179c:	8280                	ret
    8000179e:	7971                	addi	sp,sp,-48
    800017a0:	22f0                	fsw	fs0,32(sp)
    800017a2:	26ec                	fsw	fs1,24(sp)
    800017a4:	4ae8                	fsw	fs2,16(sp)
    800017a6:	06f4                	fsw	ft1,40(sp)
    800017a8:	2a89                	mv	s2,a0
    800017aa:	6144                	li	s0,24
    800017ac:	e154                	li	s1,-8
    800017ae:	3b558900          	0x89553b
    800017b2:	2c00                	addi	a1,sp,8
    800017b4:	1375f50f          	andi	a0,a0,255
    800017b8:	eff03ffc          	jal	ra,0x8000177a
    800017bc:	03458100          	lbu	a0,8(sp)
    800017c0:	6134                	jal	0x80001248
    800017c2:	eff07ff3          	jal	ra,0x800016f8
    800017c6:	03459100          	lbu	a0,9(sp)
    800017ca:	eff0fff2          	jal	ra,0x800016f8
    800017ce:	e31094fe          	bne	s0,s1,0x800017ae
    800017d2:	a270                	flw	ft1,40(sp)
    800017d4:	0274                	flw	fs0,32(sp)
    800017d6:	e264                	flw	fs1,24(sp)
    800017d8:	4269                	flw	fs2,16(sp)
    800017da:	4561                	addi	sp,sp,48
    800017dc:	8280                	ret
    800017de:	7971                	addi	sp,sp,-48
    800017e0:	22f0                	fsw	fs0,32(sp)
    800017e2:	26ec                	fsw	fs1,24(sp)
    800017e4:	4ae8                	fsw	fs2,16(sp)
    800017e6:	06f4                	fsw	ft1,40(sp)
    800017e8:	2a89                	mv	s2,a0
    800017ea:	13048003          	li	s0,56
    800017ee:	e154                	li	s1,-8
    800017f0:	33558900          	srl	a0,s2,s0
    800017f4:	2c00                	addi	a1,sp,8
    800017f6:	1375f50f          	andi	a0,a0,255
    800017fa:	eff01ff8          	jal	ra,0x8000177a
    800017fe:	03458100          	lbu	a0,8(sp)
    80001802:	6134                	jal	0x8000128a
    80001804:	eff05fef          	jal	ra,0x800016f8
    80001808:	03459100          	lbu	a0,9(sp)
    8000180c:	eff0dfee          	jal	ra,0x800016f8
    80001810:	e31094fe          	bne	s0,s1,0x800017f0
    80001814:	a270                	flw	ft1,40(sp)
    80001816:	0274                	flw	fs0,32(sp)
    80001818:	e264                	flw	fs1,24(sp)
    8000181a:	4269                	flw	fs2,16(sp)
    8000181c:	4561                	addi	sp,sp,48
    8000181e:	8280                	ret
    80001820:	0111                	addi	sp,sp,-32
    80001822:	2c00                	addi	a1,sp,8
    80001824:	06ec                	fsw	ft1,24(sp)
    80001826:	eff05ff5          	jal	ra,0x8000177a
    8000182a:	03458100          	lbu	a0,8(sp)
    8000182e:	eff0bfec          	jal	ra,0x800016f8
    80001832:	03459100          	lbu	a0,9(sp)
    80001836:	eff03fec          	jal	ra,0x800016f8
    8000183a:	e260                	flw	ft1,24(sp)
    8000183c:	0561                	addi	sp,sp,32
    8000183e:	8280                	ret
    80001840:	4111                	addi	sp,sp,-16
    80001842:	17050000          	auipc	a0,0x0
    80001846:	1305651a          	addi	a0,a0,422 # 0x800019e8
    8000184a:	06e4                	fsw	ft1,8(sp)
    8000184c:	eff0ffee          	jal	ra,0x8000173a
    80001850:	a260                	flw	ft1,8(sp)
    80001852:	7d55                	li	a0,-1
    80001854:	4101                	addi	sp,sp,16
    80001856:	8280                	ret
    80001858:	4111                	addi	sp,sp,-16
    8000185a:	17050000          	auipc	a0,0x0
    8000185e:	1305e51d          	addi	a0,a0,478 # 0x80001a38
    80001862:	06e4                	fsw	ft1,8(sp)
    80001864:	eff01fbf          	jal	ra,0x80001454
    80001868:	a260                	flw	ft1,8(sp)
    8000186a:	0145                	li	a0,0
    8000186c:	4101                	addi	sp,sp,16
    8000186e:	8280                	ret
    80001870:	6af8                	fsw	fs10,48(sp)
    80001872:	ffff                	0xffff
    80001874:	08fa                	fsw	fa0,48(a2)
    80001876:	ffff                	0xffff
    80001878:	f0f9                	fsw	fa2,116(a1)
    8000187a:	ffff                	0xffff
    8000187c:	08fa                	fsw	fa0,48(a2)
    8000187e:	ffff                	0xffff
    80001880:	08fa                	fsw	fa0,48(a2)
    80001882:	ffff                	0xffff
    80001884:	08fa                	fsw	fa0,48(a2)
    80001886:	ffff                	0xffff
    80001888:	08fa                	fsw	fa0,48(a2)
    8000188a:	ffff                	0xffff
    8000188c:	faf9                	fsw	ft10,240(sp)
    8000188e:	ffff                	0xffff
    80001890:	08fa                	fsw	fa0,48(a2)
    80001892:	ffff                	0xffff
    80001894:	08fa                	fsw	fa0,48(a2)
    80001896:	ffff                	0xffff
    80001898:	68f8                	fsw	fa0,116(s0)
    8000189a:	ffff                	0xffff
    8000189c:	f4f8                	fsw	fa3,116(s1)
    8000189e:	ffff                	0xffff
    800018a0:	08fa                	fsw	fa0,48(a2)
    800018a2:	ffff                	0xffff
    800018a4:	68f8                	fsw	fa0,116(s0)
    800018a6:	ffff                	0xffff
    800018a8:	0cf9                	fsw	fa1,48(a0)
    800018aa:	ffff                	0xffff
    800018ac:	0cf9                	fsw	fa1,48(a0)
    800018ae:	ffff                	0xffff
    800018b0:	0cf9                	fsw	fa1,48(a0)
    800018b2:	ffff                	0xffff
    800018b4:	0cf9                	fsw	fa1,48(a0)
    800018b6:	ffff                	0xffff
    800018b8:	0cf9                	fsw	fa1,48(a0)
    800018ba:	ffff                	0xffff
    800018bc:	0cf9                	fsw	fa1,48(a0)
    800018be:	ffff                	0xffff
    800018c0:	0cf9                	fsw	fa1,48(a0)
    800018c2:	ffff                	0xffff
    800018c4:	0cf9                	fsw	fa1,48(a0)
    800018c6:	ffff                	0xffff
    800018c8:	0cf9                	fsw	fa1,48(a0)
    800018ca:	ffff                	0xffff
    800018cc:	08fa                	fsw	fa0,48(a2)
    800018ce:	ffff                	0xffff
    800018d0:	08fa                	fsw	fa0,48(a2)
    800018d2:	ffff                	0xffff
    800018d4:	08fa                	fsw	fa0,48(a2)
    800018d6:	ffff                	0xffff
    800018d8:	08fa                	fsw	fa0,48(a2)
    800018da:	ffff                	0xffff
    800018dc:	08fa                	fsw	fa0,48(a2)
    800018de:	ffff                	0xffff
    800018e0:	08fa                	fsw	fa0,48(a2)
    800018e2:	ffff                	0xffff
    800018e4:	08fa                	fsw	fa0,48(a2)
    800018e6:	ffff                	0xffff
    800018e8:	08fa                	fsw	fa0,48(a2)
    800018ea:	ffff                	0xffff
    800018ec:	08fa                	fsw	fa0,48(a2)
    800018ee:	ffff                	0xffff
    800018f0:	08fa                	fsw	fa0,48(a2)
    800018f2:	ffff                	0xffff
    800018f4:	08fa                	fsw	fa0,48(a2)
    800018f6:	ffff                	0xffff
    800018f8:	08fa                	fsw	fa0,48(a2)
    800018fa:	ffff                	0xffff
    800018fc:	08fa                	fsw	fa0,48(a2)
    800018fe:	ffff                	0xffff
    80001900:	08fa                	fsw	fa0,48(a2)
    80001902:	ffff                	0xffff
    80001904:	08fa                	fsw	fa0,48(a2)
    80001906:	ffff                	0xffff
    80001908:	08fa                	fsw	fa0,48(a2)
    8000190a:	ffff                	0xffff
    8000190c:	08fa                	fsw	fa0,48(a2)
    8000190e:	ffff                	0xffff
    80001910:	08fa                	fsw	fa0,48(a2)
    80001912:	ffff                	0xffff
    80001914:	08fa                	fsw	fa0,48(a2)
    80001916:	ffff                	0xffff
    80001918:	08fa                	fsw	fa0,48(a2)
    8000191a:	ffff                	0xffff
    8000191c:	08fa                	fsw	fa0,48(a2)
    8000191e:	ffff                	0xffff
    80001920:	08fa                	fsw	fa0,48(a2)
    80001922:	ffff                	0xffff
    80001924:	08fa                	fsw	fa0,48(a2)
    80001926:	ffff                	0xffff
    80001928:	08fa                	fsw	fa0,48(a2)
    8000192a:	ffff                	0xffff
    8000192c:	08fa                	fsw	fa0,48(a2)
    8000192e:	ffff                	0xffff
    80001930:	08fa                	fsw	fa0,48(a2)
    80001932:	ffff                	0xffff
    80001934:	08fa                	fsw	fa0,48(a2)
    80001936:	ffff                	0xffff
    80001938:	08fa                	fsw	fa0,48(a2)
    8000193a:	ffff                	0xffff
    8000193c:	08fa                	fsw	fa0,48(a2)
    8000193e:	ffff                	0xffff
    80001940:	08fa                	fsw	fa0,48(a2)
    80001942:	ffff                	0xffff
    80001944:	08fa                	fsw	fa0,48(a2)
    80001946:	ffff                	0xffff
    80001948:	08fa                	fsw	fa0,48(a2)
    8000194a:	ffff                	0xffff
    8000194c:	08fa                	fsw	fa0,48(a2)
    8000194e:	ffff                	0xffff
    80001950:	08fa                	fsw	fa0,48(a2)
    80001952:	ffff                	0xffff
    80001954:	08fa                	fsw	fa0,48(a2)
    80001956:	ffff                	0xffff
    80001958:	08fa                	fsw	fa0,48(a2)
    8000195a:	ffff                	0xffff
    8000195c:	08fa                	fsw	fa0,48(a2)
    8000195e:	ffff                	0xffff
    80001960:	08fa                	fsw	fa0,48(a2)
    80001962:	ffff                	0xffff
    80001964:	08fa                	fsw	fa0,48(a2)
    80001966:	ffff                	0xffff
    80001968:	08fa                	fsw	fa0,48(a2)
    8000196a:	ffff                	0xffff
    8000196c:	08fa                	fsw	fa0,48(a2)
    8000196e:	ffff                	0xffff
    80001970:	52f9                	fsw	fs4,176(sp)
    80001972:	ffff                	0xffff
    80001974:	d4f9                	fsw	fa3,52(a1)
    80001976:	ffff                	0xffff
    80001978:	08fa                	fsw	fa0,48(a2)
    8000197a:	ffff                	0xffff
    8000197c:	08fa                	fsw	fa0,48(a2)
    8000197e:	ffff                	0xffff
    80001980:	08fa                	fsw	fa0,48(a2)
    80001982:	ffff                	0xffff
    80001984:	08fa                	fsw	fa0,48(a2)
    80001986:	ffff                	0xffff
    80001988:	08fa                	fsw	fa0,48(a2)
    8000198a:	ffff                	0xffff
    8000198c:	08fa                	fsw	fa0,48(a2)
    8000198e:	ffff                	0xffff
    80001990:	08fa                	fsw	fa0,48(a2)
    80001992:	ffff                	0xffff
    80001994:	acf9                	fsw	fa1,112(a1)
    80001996:	ffff                	0xffff
    80001998:	08fa                	fsw	fa0,48(a2)
    8000199a:	ffff                	0xffff
    8000199c:	08fa                	fsw	fa0,48(a2)
    8000199e:	ffff                	0xffff
    800019a0:	72f8                	fsw	ft8,48(sp)
    800019a2:	ffff                	0xffff
    800019a4:	b6f9                	fsw	fa3,240(sp)
    800019a6:	ffff                	0xffff
    800019a8:	08fa                	fsw	fa0,48(a2)
    800019aa:	ffff                	0xffff
    800019ac:	08fa                	fsw	fa0,48(a2)
    800019ae:	ffff                	0xffff
    800019b0:	5ef9                	fsw	fs7,176(sp)
    800019b2:	ffff                	0xffff
    800019b4:	08fa                	fsw	fa0,48(a2)
    800019b6:	ffff                	0xffff
    800019b8:	a8f9                	fsw	fa0,112(a1)
    800019ba:	ffff                	0xffff
    800019bc:	08fa                	fsw	fa0,48(a2)
    800019be:	ffff                	0xffff
    800019c0:	08fa                	fsw	fa0,48(a2)
    800019c2:	ffff                	0xffff
    800019c4:	08f9                	fsw	fa0,48(a0)
    800019c6:	ffff                	0xffff
    800019c8:	286e                	flw	fa0,88(a2)
    800019ca:	756c                	lui	s8,0x1d
    800019cc:	6c29                	fld	fa1,208(a0)
    800019ce:	0000                	unimp
    800019d0:	6d63                	lui	t1,0x1b
    800019d2:	7963                	lui	t1,0x1e
    800019d4:	6c65                	flw	fa1,76(a0)
    800019d6:	0000                	unimp
    800019d8:	6d69                	lui	s2,0x1b
    800019da:	6e73                	flw	ft6,248(sp)
    800019dc:	7472                	flw	fa3,100(a2)
    800019de:	6574                	lui	s0,0xffff9
	...
    800019e8:	496d                	lui	s10,0x12
    800019ea:	706c                	flw	fa2,92(s0)
    800019ec:	656d                	lui	s10,0x19
    800019ee:	656e                	lui	t3,0x19
    800019f0:	7420                	fld	fa3,192(s0)
    800019f2:	6d61                	addi	sp,sp,240
    800019f4:	696e                	lui	t3,0x1a
    800019f6:	2829                	fld	fa0,80(a0)
    800019f8:	2c20                	fld	fa1,64(s0)
    800019fa:	666f                	flw	ft10,88(sp)
    800019fc:	6f210a00          	jal	sp,0x800a39fc
    80001a00:	2573                	lui	t1,0xfffe9
    80001a02:	203d                	fld	fs0,120(a0)
    80001a04:	2025                	fld	fs0,72(a0)
    80001a06:	640a                	addi	s1,sp,284
	...
    80001a10:	4553                	li	t1,-15
    80001a12:	502d                	fld	fa2,152(a0)
    80001a14:	4172                	lui	tp,0xffff0
    80001a16:	6961                	addi	sp,sp,208
    80001a18:	6e65                	flw	fa0,216(sp)
    80001a1a:	2066                	flw	fs0,72(a2)
    80001a1c:	6972                	lui	tp,0xffffa
    80001a1e:	73742d73          	csrrci	s0,0x732,26
    80001a22:	7461                	flw	fa3,68(a0)
    80001a24:	67652062          	0x62206567
    80001a28:	6f6f7420          	jal	t5,0x8004842e
    80001a2c:	6c6f                	flw	fa1,92(a4)
    80001a2e:	6164                	lui	s0,0x18
    80001a30:	6572                	lui	tp,0xffff9
    80001a32:	0a0a                	slli	s4,s4,0x2
    80001a34:	0000                	unimp
    80001a36:	0000                	unimp
    80001a38:	4865                	flw	fa0,12(a0)
    80001a3a:	6c6c                	flw	fa1,92(s0)
    80001a3c:	6f206672          	j	0x80064162
    80001a40:	6f6d2045          	jal	s10,0x80007e92
    80001a44:	5350210a          	fsub.d	ft0,ft2,ft2,unknown
	...
    80001a50:	3031                	fld	fa2,96(a0)
    80001a52:	3233                	fld	ft6,296(sp)
    80001a54:	3435                	fld	fa3,104(a0)
    80001a56:	3637                	fld	fa4,360(sp)
    80001a58:	3839                	fld	fa4,112(a0)
    80001a5a:	4142                	li	tp,16
    80001a5c:	43444546          	fmadd.q	fs0,fa0,ft4,fs0,rmm
